target datalayout = "e-m:e-p270:32:32-p271:32:32-p272:64:64-i64:64-i128:128-f80:128-n8:16:32:64-S128"
target triple = "x86_64-pc-linux-gnu"

%struct.Jpeg2000TgtNode = type { i8, i8, i8, ptr }
%struct.Jpeg2000CodingStyle = type { i32, i32, i8, i8, i8, i8, i8, i8, i8, i8, [34 x i8], [34 x i8], i8 }
%struct.Jpeg2000Component = type { ptr, %struct.DWTContext, ptr, ptr, [2 x [2 x i32]], [2 x [2 x i32]], i8 }
%struct.DWTContext = type { [32 x [2 x i32]], [32 x [2 x i8]], i8, i8, ptr, ptr }
%struct.Jpeg2000ResLevel = type { i8, [2 x [2 x i32]], i32, i32, i8, i8, ptr }
%struct.Jpeg2000Band = type { [2 x [2 x i32]], i16, i16, i32, float, ptr }
%struct.Jpeg2000Prec = type { i32, i32, ptr, ptr, ptr, i32, [2 x [2 x i32]] }
%struct.Jpeg2000Cblk = type { i8, i8, i8, i8, i16, ptr, i8, i8, ptr, i64, i32, i32, ptr, ptr, ptr, [2 x [2 x i32]], i32, [2 x i32], i8, i8 }

@.str.2 = private unnamed_addr constant [30 x i8] c"Assertion %s failed at %s:%d\0A\00", align 1
@.str.3 = private unnamed_addr constant [23 x i8] c"res + 1 < (2147483647)\00", align 1
@.str.4 = private unnamed_addr constant [22 x i8] c"libavcodec/jpeg2000.c\00", align 1

; Function Attrs: nounwind uwtable
define internal i32 @tag_tree_size(i32 noundef %0, i32 noundef %1) #0 {
  %3 = alloca i32, align 4
  %4 = alloca i32, align 4
  %5 = alloca i64, align 8
  store i32 %0, ptr %3, align 4, !tbaa !9
  store i32 %1, ptr %4, align 4, !tbaa !9
  call void @llvm.lifetime.start.p0(i64 8, ptr %5) #8
  store i64 0, ptr %5, align 8, !tbaa !17
  br label %6

6:                                                ; preds = %29, %2
  %7 = load i32, ptr %3, align 4, !tbaa !9
  %8 = icmp sgt i32 %7, 1
  br i1 %8, label %12, label %9

9:                                                ; preds = %6
  %10 = load i32, ptr %4, align 4, !tbaa !9
  %11 = icmp sgt i32 %10, 1
  br label %12

12:                                               ; preds = %9, %6
  %13 = phi i1 [ true, %6 ], [ %11, %9 ]
  br i1 %13, label %14, label %36

14:                                               ; preds = %12
  %15 = load i32, ptr %3, align 4, !tbaa !9
  %16 = sext i32 %15 to i64
  %17 = load i32, ptr %4, align 4, !tbaa !9
  %18 = sext i32 %17 to i64
  %19 = mul nsw i64 %16, %18
  %20 = load i64, ptr %5, align 8, !tbaa !17
  %21 = add nsw i64 %20, %19
  store i64 %21, ptr %5, align 8, !tbaa !17
  br label %22

22:                                               ; preds = %14
  %23 = load i64, ptr %5, align 8, !tbaa !17
  %24 = add nsw i64 %23, 1
  %25 = icmp slt i64 %24, 2147483647
  br i1 %25, label %27, label %26

26:                                               ; preds = %22
  call void (ptr, i32, ptr, ...) @av_log(ptr noundef null, i32 noundef 0, ptr noundef @.str.2, ptr noundef @.str.3, ptr noundef @.str.4, i32 noundef 47)
  call void @abort() #9
  unreachable

27:                                               ; preds = %22
  br label %28

28:                                               ; preds = %27
  br label %29

29:                                               ; preds = %28
  %30 = load i32, ptr %3, align 4, !tbaa !9
  %31 = add nsw i32 %30, 1
  %32 = ashr i32 %31, 1
  store i32 %32, ptr %3, align 4, !tbaa !9
  %33 = load i32, ptr %4, align 4, !tbaa !9
  %34 = add nsw i32 %33, 1
  %35 = ashr i32 %34, 1
  store i32 %35, ptr %4, align 4, !tbaa !9
  br label %6, !llvm.loop !19

36:                                               ; preds = %12
  %37 = load i64, ptr %5, align 8, !tbaa !17
  %38 = add nsw i64 %37, 1
  %39 = trunc i64 %38 to i32
  call void @llvm.lifetime.end.p0(i64 8, ptr %5) #8
  ret i32 %39
}

; Function Attrs: nounwind uwtable
define void @ff_tag_tree_zero(ptr noundef %0, i32 noundef %1, i32 noundef %2, i32 noundef %3) #0 {
  %5 = alloca ptr, align 8
  %6 = alloca i32, align 4
  %7 = alloca i32, align 4
  %8 = alloca i32, align 4
  %9 = alloca i32, align 4
  %10 = alloca i32, align 4
  store ptr %0, ptr %5, align 8, !tbaa !4
  store i32 %1, ptr %6, align 4, !tbaa !9
  store i32 %2, ptr %7, align 4, !tbaa !9
  store i32 %3, ptr %8, align 4, !tbaa !9
  call void @llvm.lifetime.start.p0(i64 4, ptr %9) #8
  call void @llvm.lifetime.start.p0(i64 4, ptr %10) #8
  %11 = load i32, ptr %6, align 4, !tbaa !9
  %12 = load i32, ptr %7, align 4, !tbaa !9
  %13 = call i32 @tag_tree_size(i32 noundef %11, i32 noundef %12)
  store i32 %13, ptr %10, align 4, !tbaa !9
  store i32 0, ptr %9, align 4, !tbaa !9
  br label %14

14:                                               ; preds = %36, %4
  %15 = load i32, ptr %9, align 4, !tbaa !9
  %16 = load i32, ptr %10, align 4, !tbaa !9
  %17 = icmp slt i32 %15, %16
  br i1 %17, label %18, label %39

18:                                               ; preds = %14
  %19 = load i32, ptr %8, align 4, !tbaa !9
  %20 = trunc i32 %19 to i8
  %21 = load ptr, ptr %5, align 8, !tbaa !4
  %22 = load i32, ptr %9, align 4, !tbaa !9
  %23 = sext i32 %22 to i64
  %24 = getelementptr inbounds %struct.Jpeg2000TgtNode, ptr %21, i64 %23
  %25 = getelementptr inbounds nuw %struct.Jpeg2000TgtNode, ptr %24, i32 0, i32 0
  store i8 %20, ptr %25, align 8, !tbaa !11
  %26 = load ptr, ptr %5, align 8, !tbaa !4
  %27 = load i32, ptr %9, align 4, !tbaa !9
  %28 = sext i32 %27 to i64
  %29 = getelementptr inbounds %struct.Jpeg2000TgtNode, ptr %26, i64 %28
  %30 = getelementptr inbounds nuw %struct.Jpeg2000TgtNode, ptr %29, i32 0, i32 1
  store i8 0, ptr %30, align 1, !tbaa !13
  %31 = load ptr, ptr %5, align 8, !tbaa !4
  %32 = load i32, ptr %9, align 4, !tbaa !9
  %33 = sext i32 %32 to i64
  %34 = getelementptr inbounds %struct.Jpeg2000TgtNode, ptr %31, i64 %33
  %35 = getelementptr inbounds nuw %struct.Jpeg2000TgtNode, ptr %34, i32 0, i32 2
  store i8 0, ptr %35, align 2, !tbaa !14
  br label %36

36:                                               ; preds = %18
  %37 = load i32, ptr %9, align 4, !tbaa !9
  %38 = add nsw i32 %37, 1
  store i32 %38, ptr %9, align 4, !tbaa !9
  br label %14, !llvm.loop !15

39:                                               ; preds = %14
  call void @llvm.lifetime.end.p0(i64 4, ptr %10) #8
  call void @llvm.lifetime.end.p0(i64 4, ptr %9) #8
  ret void
}

; Function Attrs: nounwind uwtable
define void @ff_jpeg2000_reinit(ptr noundef %0, ptr noundef %1) #0 {
  %3 = alloca ptr, align 8
  %4 = alloca ptr, align 8
  %5 = alloca i32, align 4
  %6 = alloca i32, align 4
  %7 = alloca i32, align 4
  %8 = alloca i32, align 4
  %9 = alloca ptr, align 8
  %10 = alloca ptr, align 8
  %11 = alloca ptr, align 8
  %12 = alloca ptr, align 8
  store ptr %0, ptr %3, align 8, !tbaa !33
  store ptr %1, ptr %4, align 8, !tbaa !35
  call void @llvm.lifetime.start.p0(i64 4, ptr %5) #8
  call void @llvm.lifetime.start.p0(i64 4, ptr %6) #8
  call void @llvm.lifetime.start.p0(i64 4, ptr %7) #8
  call void @llvm.lifetime.start.p0(i64 4, ptr %8) #8
  store i32 0, ptr %5, align 4, !tbaa !9
  br label %13

13:                                               ; preds = %108, %2
  %14 = load i32, ptr %5, align 4, !tbaa !9
  %15 = load ptr, ptr %4, align 8, !tbaa !35
  %16 = getelementptr inbounds nuw %struct.Jpeg2000CodingStyle, ptr %15, i32 0, i32 0
  %17 = load i32, ptr %16, align 4, !tbaa !51
  %18 = icmp slt i32 %14, %17
  br i1 %18, label %19, label %111

19:                                               ; preds = %13
  call void @llvm.lifetime.start.p0(i64 8, ptr %9) #8
  %20 = load ptr, ptr %3, align 8, !tbaa !33
  %21 = getelementptr inbounds nuw %struct.Jpeg2000Component, ptr %20, i32 0, i32 0
  %22 = load ptr, ptr %21, align 8, !tbaa !52
  %23 = load i32, ptr %5, align 4, !tbaa !9
  %24 = sext i32 %23 to i64
  %25 = getelementptr inbounds %struct.Jpeg2000ResLevel, ptr %22, i64 %24
  store ptr %25, ptr %9, align 8, !tbaa !53
  store i32 0, ptr %6, align 4, !tbaa !9
  br label %26

26:                                               ; preds = %104, %19
  %27 = load i32, ptr %6, align 4, !tbaa !9
  %28 = load ptr, ptr %9, align 8, !tbaa !53
  %29 = getelementptr inbounds nuw %struct.Jpeg2000ResLevel, ptr %28, i32 0, i32 0
  %30 = load i8, ptr %29, align 8, !tbaa !60
  %31 = zext i8 %30 to i32
  %32 = icmp slt i32 %27, %31
  br i1 %32, label %33, label %107

33:                                               ; preds = %26
  call void @llvm.lifetime.start.p0(i64 8, ptr %10) #8
  %34 = load ptr, ptr %9, align 8, !tbaa !53
  %35 = getelementptr inbounds nuw %struct.Jpeg2000ResLevel, ptr %34, i32 0, i32 6
  %36 = load ptr, ptr %35, align 8, !tbaa !63
  %37 = load i32, ptr %6, align 4, !tbaa !9
  %38 = sext i32 %37 to i64
  %39 = getelementptr inbounds %struct.Jpeg2000Band, ptr %36, i64 %38
  store ptr %39, ptr %10, align 8, !tbaa !82
  store i32 0, ptr %8, align 4, !tbaa !9
  br label %40

40:                                               ; preds = %100, %33
  %41 = load i32, ptr %8, align 4, !tbaa !9
  %42 = load ptr, ptr %9, align 8, !tbaa !53
  %43 = getelementptr inbounds nuw %struct.Jpeg2000ResLevel, ptr %42, i32 0, i32 2
  %44 = load i32, ptr %43, align 4, !tbaa !61
  %45 = load ptr, ptr %9, align 8, !tbaa !53
  %46 = getelementptr inbounds nuw %struct.Jpeg2000ResLevel, ptr %45, i32 0, i32 3
  %47 = load i32, ptr %46, align 8, !tbaa !62
  %48 = mul nsw i32 %44, %47
  %49 = icmp slt i32 %41, %48
  br i1 %49, label %50, label %103

50:                                               ; preds = %40
  call void @llvm.lifetime.start.p0(i64 8, ptr %11) #8
  %51 = load ptr, ptr %10, align 8, !tbaa !82
  %52 = getelementptr inbounds nuw %struct.Jpeg2000Band, ptr %51, i32 0, i32 5
  %53 = load ptr, ptr %52, align 8, !tbaa !93
  %54 = load i32, ptr %8, align 4, !tbaa !9
  %55 = sext i32 %54 to i64
  %56 = getelementptr inbounds %struct.Jpeg2000Prec, ptr %53, i64 %55
  store ptr %56, ptr %11, align 8, !tbaa !95
  %57 = load ptr, ptr %11, align 8, !tbaa !95
  %58 = getelementptr inbounds nuw %struct.Jpeg2000Prec, ptr %57, i32 0, i32 2
  %59 = load ptr, ptr %58, align 8, !tbaa !96
  %60 = load ptr, ptr %11, align 8, !tbaa !95
  %61 = getelementptr inbounds nuw %struct.Jpeg2000Prec, ptr %60, i32 0, i32 0
  %62 = load i32, ptr %61, align 8, !tbaa !99
  %63 = load ptr, ptr %11, align 8, !tbaa !95
  %64 = getelementptr inbounds nuw %struct.Jpeg2000Prec, ptr %63, i32 0, i32 1
  %65 = load i32, ptr %64, align 4, !tbaa !100
  call void @ff_tag_tree_zero(ptr noundef %59, i32 noundef %62, i32 noundef %65, i32 noundef 0)
  %66 = load ptr, ptr %11, align 8, !tbaa !95
  %67 = getelementptr inbounds nuw %struct.Jpeg2000Prec, ptr %66, i32 0, i32 3
  %68 = load ptr, ptr %67, align 8, !tbaa !101
  %69 = load ptr, ptr %11, align 8, !tbaa !95
  %70 = getelementptr inbounds nuw %struct.Jpeg2000Prec, ptr %69, i32 0, i32 0
  %71 = load i32, ptr %70, align 8, !tbaa !99
  %72 = load ptr, ptr %11, align 8, !tbaa !95
  %73 = getelementptr inbounds nuw %struct.Jpeg2000Prec, ptr %72, i32 0, i32 1
  %74 = load i32, ptr %73, align 4, !tbaa !100
  call void @ff_tag_tree_zero(ptr noundef %68, i32 noundef %71, i32 noundef %74, i32 noundef 0)
  store i32 0, ptr %7, align 4, !tbaa !9
  br label %75

75:                                               ; preds = %96, %50
  %76 = load i32, ptr %7, align 4, !tbaa !9
  %77 = load ptr, ptr %11, align 8, !tbaa !95
  %78 = getelementptr inbounds nuw %struct.Jpeg2000Prec, ptr %77, i32 0, i32 0
  %79 = load i32, ptr %78, align 8, !tbaa !99
  %80 = load ptr, ptr %11, align 8, !tbaa !95
  %81 = getelementptr inbounds nuw %struct.Jpeg2000Prec, ptr %80, i32 0, i32 1
  %82 = load i32, ptr %81, align 4, !tbaa !100
  %83 = mul nsw i32 %79, %82
  %84 = icmp slt i32 %76, %83
  br i1 %84, label %85, label %99

85:                                               ; preds = %75
  call void @llvm.lifetime.start.p0(i64 8, ptr %12) #8
  %86 = load ptr, ptr %11, align 8, !tbaa !95
  %87 = getelementptr inbounds nuw %struct.Jpeg2000Prec, ptr %86, i32 0, i32 4
  %88 = load ptr, ptr %87, align 8, !tbaa !102
  %89 = load i32, ptr %7, align 4, !tbaa !9
  %90 = sext i32 %89 to i64
  %91 = getelementptr inbounds %struct.Jpeg2000Cblk, ptr %88, i64 %90
  store ptr %91, ptr %12, align 8, !tbaa !103
  %92 = load ptr, ptr %12, align 8, !tbaa !103
  %93 = getelementptr inbounds nuw %struct.Jpeg2000Cblk, ptr %92, i32 0, i32 4
  store i16 0, ptr %93, align 4, !tbaa !104
  %94 = load ptr, ptr %12, align 8, !tbaa !103
  %95 = getelementptr inbounds nuw %struct.Jpeg2000Cblk, ptr %94, i32 0, i32 7
  store i8 3, ptr %95, align 1, !tbaa !108
  call void @llvm.lifetime.end.p0(i64 8, ptr %12) #8
  br label %96

96:                                               ; preds = %85
  %97 = load i32, ptr %7, align 4, !tbaa !9
  %98 = add nsw i32 %97, 1
  store i32 %98, ptr %7, align 4, !tbaa !9
  br label %75, !llvm.loop !109

99:                                               ; preds = %75
  call void @llvm.lifetime.end.p0(i64 8, ptr %11) #8
  br label %100

100:                                              ; preds = %99
  %101 = load i32, ptr %8, align 4, !tbaa !9
  %102 = add nsw i32 %101, 1
  store i32 %102, ptr %8, align 4, !tbaa !9
  br label %40, !llvm.loop !110

103:                                              ; preds = %40
  call void @llvm.lifetime.end.p0(i64 8, ptr %10) #8
  br label %104

104:                                              ; preds = %103
  %105 = load i32, ptr %6, align 4, !tbaa !9
  %106 = add nsw i32 %105, 1
  store i32 %106, ptr %6, align 4, !tbaa !9
  br label %26, !llvm.loop !111

107:                                              ; preds = %26
  call void @llvm.lifetime.end.p0(i64 8, ptr %9) #8
  br label %108

108:                                              ; preds = %107
  %109 = load i32, ptr %5, align 4, !tbaa !9
  %110 = add nsw i32 %109, 1
  store i32 %110, ptr %5, align 4, !tbaa !9
  br label %13, !llvm.loop !112

111:                                              ; preds = %13
  call void @llvm.lifetime.end.p0(i64 4, ptr %8) #8
  call void @llvm.lifetime.end.p0(i64 4, ptr %7) #8
  call void @llvm.lifetime.end.p0(i64 4, ptr %6) #8
  call void @llvm.lifetime.end.p0(i64 4, ptr %5) #8
  ret void
}