; Function Attrs: nounwind uwtable
define void @ff_jpeg2000_reinit(ptr noundef readonly captures(none) %0, ptr noundef readonly captures(none) %1) local_unnamed_addr #0 {
  %3 = load i32, ptr %1, align 4, !tbaa !38
  %4 = icmp sgt i32 %3, 0
  br i1 %4, label %.lr.ph, label %._crit_edge

.lr.ph:                                           ; preds = %2
  %5 = load ptr, ptr %0, align 8, !tbaa !39
  %wide.trip.count75 = zext nneg i32 %3 to i64
  br label %6

6:                                                ; preds = %.lr.ph, %._crit_edge54
  %indvars.iv72 = phi i64 [ 0, %.lr.ph ], [ %indvars.iv.next73, %._crit_edge54 ]
  %7 = getelementptr inbounds nuw %struct.Jpeg2000ResLevel, ptr %5, i64 %indvars.iv72
  %8 = load i8, ptr %7, align 8, !tbaa !45
  %.not = icmp eq i8 %8, 0
  br i1 %.not, label %._crit_edge54, label %.lr.ph53

.lr.ph53:                                         ; preds = %6
  %9 = getelementptr inbounds nuw i8, ptr %7, i64 32
  %10 = load ptr, ptr %9, align 8, !tbaa !48
  %11 = getelementptr inbounds nuw i8, ptr %7, i64 20
  %12 = load i32, ptr %11, align 4, !tbaa !46
  %13 = getelementptr inbounds nuw i8, ptr %7, i64 24
  %14 = load i32, ptr %13, align 8, !tbaa !47
  %15 = mul nsw i32 %14, %12
  %16 = icmp sgt i32 %15, 0
  br i1 %16, label %.lr.ph49.us.preheader, label %._crit_edge54

.lr.ph49.us.preheader:                            ; preds = %.lr.ph53
  %wide.trip.count70 = zext i8 %8 to i64
  %wide.trip.count65 = zext nneg i32 %15 to i64
  br label %.lr.ph49.us

.lr.ph49.us:                                      ; preds = %.lr.ph49.us.preheader, %._crit_edge50.us
  %indvars.iv67 = phi i64 [ 0, %.lr.ph49.us.preheader ], [ %indvars.iv.next68, %._crit_edge50.us ]
  %17 = getelementptr inbounds nuw %struct.Jpeg2000Band, ptr %10, i64 %indvars.iv67, i32 5
  %18 = load ptr, ptr %17, align 8, !tbaa !78
  br label %19

19:                                               ; preds = %.lr.ph49.us, %._crit_edge.us
  %indvars.iv62 = phi i64 [ 0, %.lr.ph49.us ], [ %indvars.iv.next63, %._crit_edge.us ]
  %20 = getelementptr inbounds nuw %struct.Jpeg2000Prec, ptr %18, i64 %indvars.iv62
  %21 = getelementptr inbounds nuw i8, ptr %20, i64 8
  %22 = load ptr, ptr %21, align 8, !tbaa !85
  %23 = load i32, ptr %20, align 8, !tbaa !82
  %24 = getelementptr inbounds nuw i8, ptr %20, i64 4
  %25 = load i32, ptr %24, align 4, !tbaa !83
  %26 = icmp sgt i32 %23, 1
  %27 = icmp sgt i32 %25, 1
  %28 = or i1 %26, %27
  br i1 %28, label %.lr.ph.i.i.us, label %.lr.ph.i.us

.lr.ph.i.i.us:                                    ; preds = %19, %34
  %.014.i.i.us = phi i64 [ %32, %34 ], [ 0, %19 ]
  %.0913.i.i.us = phi i32 [ %38, %34 ], [ %25, %19 ]
  %.01012.i.i.us = phi i32 [ %36, %34 ], [ %23, %19 ]
  %29 = sext i32 %.01012.i.i.us to i64
  %30 = sext i32 %.0913.i.i.us to i64
  %31 = mul nsw i64 %29, %30
  %32 = add nsw i64 %31, %.014.i.i.us
  %33 = icmp slt i64 %32, 2147483646
  br i1 %33, label %34, label %.split.us

34:                                               ; preds = %.lr.ph.i.i.us
  %35 = add nsw i32 %.01012.i.i.us, 1
  %36 = ashr i32 %35, 1
  %37 = add nsw i32 %.0913.i.i.us, 1
  %38 = ashr i32 %37, 1
  %39 = icmp sgt i32 %36, 1
  %40 = icmp sgt i32 %38, 1
  %41 = select i1 %39, i1 true, i1 %40
  br i1 %41, label %.lr.ph.i.i.us, label %tag_tree_size.exit.i.us, !llvm.loop !4

tag_tree_size.exit.i.us:                          ; preds = %34
  %42 = trunc i64 %32 to i32
  %43 = add nsw i64 %32, 1
  %44 = icmp ult i32 %42, 2147483647
  br i1 %44, label %.lr.ph.i.us, label %ff_tag_tree_zero.exit.us

.lr.ph.i.us:                                      ; preds = %tag_tree_size.exit.i.us, %19
  %.0.lcssa.i16.i.us = phi i64 [ %43, %tag_tree_size.exit.i.us ], [ 1, %19 ]
  %wide.trip.count.i.us = and i64 %.0.lcssa.i16.i.us, 4294967295
  br label %45

45:                                               ; preds = %45, %.lr.ph.i.us
  %indvars.iv.i.us = phi i64 [ 0, %.lr.ph.i.us ], [ %indvars.iv.next.i.us, %45 ]
  %46 = getelementptr inbounds nuw %struct.Jpeg2000TgtNode, ptr %22, i64 %indvars.iv.i.us
  store i8 0, ptr %46, align 8, !tbaa !6
  %47 = getelementptr inbounds nuw i8, ptr %46, i64 1
  store i8 0, ptr %47, align 1, !tbaa !12
  %48 = getelementptr inbounds nuw i8, ptr %46, i64 2
  store i8 0, ptr %48, align 2, !tbaa !13
  %indvars.iv.next.i.us = add nuw nsw i64 %indvars.iv.i.us, 1
  %exitcond.not.i.us = icmp eq i64 %indvars.iv.next.i.us, %wide.trip.count.i.us
  br i1 %exitcond.not.i.us, label %ff_tag_tree_zero.exit.us, label %45, !llvm.loop !14

ff_tag_tree_zero.exit.us:                         ; preds = %45, %tag_tree_size.exit.i.us
  %49 = getelementptr inbounds nuw i8, ptr %20, i64 16
  %50 = load ptr, ptr %49, align 8, !tbaa !84
  br i1 %28, label %.lr.ph.i.i38.us, label %.lr.ph.i32.us

.lr.ph.i.i38.us:                                  ; preds = %ff_tag_tree_zero.exit.us, %56
  %.014.i.i39.us = phi i64 [ %54, %56 ], [ 0, %ff_tag_tree_zero.exit.us ]
  %.0913.i.i40.us = phi i32 [ %60, %56 ], [ %25, %ff_tag_tree_zero.exit.us ]
  %.01012.i.i41.us = phi i32 [ %58, %56 ], [ %23, %ff_tag_tree_zero.exit.us ]
  %51 = sext i32 %.01012.i.i41.us to i64
  %52 = sext i32 %.0913.i.i40.us to i64
  %53 = mul nsw i64 %51, %52
  %54 = add nsw i64 %53, %.014.i.i39.us
  %55 = icmp slt i64 %54, 2147483646
  br i1 %55, label %56, label %.split56.us

56:                                               ; preds = %.lr.ph.i.i38.us
  %57 = add nsw i32 %.01012.i.i41.us, 1
  %58 = ashr i32 %57, 1
  %59 = add nsw i32 %.0913.i.i40.us, 1
  %60 = ashr i32 %59, 1
  %61 = icmp sgt i32 %58, 1
  %62 = icmp sgt i32 %60, 1
  %63 = select i1 %61, i1 true, i1 %62
  br i1 %63, label %.lr.ph.i.i38.us, label %tag_tree_size.exit.i42.us, !llvm.loop !4

tag_tree_size.exit.i42.us:                        ; preds = %56
  %64 = trunc i64 %54 to i32
  %65 = add nsw i64 %54, 1
  %66 = icmp ult i32 %64, 2147483647
  br i1 %66, label %.lr.ph.i32.us, label %ff_tag_tree_zero.exit43.us

.lr.ph.i32.us:                                    ; preds = %tag_tree_size.exit.i42.us, %ff_tag_tree_zero.exit.us
  %.0.lcssa.i16.i33.us = phi i64 [ %65, %tag_tree_size.exit.i42.us ], [ 1, %ff_tag_tree_zero.exit.us ]
  %wide.trip.count.i34.us = and i64 %.0.lcssa.i16.i33.us, 4294967295
  br label %67

67:                                               ; preds = %67, %.lr.ph.i32.us
  %indvars.iv.i35.us = phi i64 [ 0, %.lr.ph.i32.us ], [ %indvars.iv.next.i36.us, %67 ]
  %68 = getelementptr inbounds nuw %struct.Jpeg2000TgtNode, ptr %50, i64 %indvars.iv.i35.us
  store i8 0, ptr %68, align 8, !tbaa !6
  %69 = getelementptr inbounds nuw i8, ptr %68, i64 1
  store i8 0, ptr %69, align 1, !tbaa !12
  %70 = getelementptr inbounds nuw i8, ptr %68, i64 2
  store i8 0, ptr %70, align 2, !tbaa !13
  %indvars.iv.next.i36.us = add nuw nsw i64 %indvars.iv.i35.us, 1
  %exitcond.not.i37.us = icmp eq i64 %indvars.iv.next.i36.us, %wide.trip.count.i34.us
  br i1 %exitcond.not.i37.us, label %ff_tag_tree_zero.exit43.us, label %67, !llvm.loop !14

ff_tag_tree_zero.exit43.us:                       ; preds = %67, %tag_tree_size.exit.i42.us
  %71 = mul nsw i32 %25, %23
  %72 = icmp sgt i32 %71, 0
  br i1 %72, label %.lr.ph.us, label %._crit_edge.us

._crit_edge.us:                                   ; preds = %73, %ff_tag_tree_zero.exit43.us
  %indvars.iv.next63 = add nuw nsw i64 %indvars.iv62, 1
  %exitcond66.not = icmp eq i64 %indvars.iv.next63, %wide.trip.count65
  br i1 %exitcond66.not, label %._crit_edge50.us, label %19, !llvm.loop !100

73:                                               ; preds = %.lr.ph.us, %73
  %indvars.iv = phi i64 [ 0, %.lr.ph.us ], [ %indvars.iv.next, %73 ]
  %74 = getelementptr inbounds nuw %struct.Jpeg2000Cblk, ptr %78, i64 %indvars.iv
  %75 = getelementptr inbounds nuw i8, ptr %74, i64 4
  store i16 0, ptr %75, align 4, !tbaa !91
  %76 = getelementptr inbounds nuw i8, ptr %74, i64 17
  store i8 3, ptr %76, align 1, !tbaa !87
  %indvars.iv.next = add nuw nsw i64 %indvars.iv, 1
  %exitcond.not = icmp eq i64 %indvars.iv.next, %wide.trip.count
  br i1 %exitcond.not, label %._crit_edge.us, label %73, !llvm.loop !101

.lr.ph.us:                                        ; preds = %ff_tag_tree_zero.exit43.us
  %77 = getelementptr inbounds nuw i8, ptr %20, i64 24
  %78 = load ptr, ptr %77, align 8, !tbaa !86
  %wide.trip.count = zext nneg i32 %71 to i64
  br label %73

._crit_edge50.us:                                 ; preds = %._crit_edge.us
  %indvars.iv.next68 = add nuw nsw i64 %indvars.iv67, 1
  %exitcond71.not = icmp eq i64 %indvars.iv.next68, %wide.trip.count70
  br i1 %exitcond71.not, label %._crit_edge54, label %.lr.ph49.us, !llvm.loop !102

.split.us:                                        ; preds = %.lr.ph.i.i.us
  tail call void (ptr, i32, ptr, ...) @av_log(ptr noundef null, i32 noundef 0, ptr noundef nonnull @.str.2, ptr noundef nonnull @.str.3, ptr noundef nonnull @.str.4, i32 noundef 47) #8
  tail call void @abort() #9
  unreachable

.split56.us:                                      ; preds = %.lr.ph.i.i38.us
  tail call void (ptr, i32, ptr, ...) @av_log(ptr noundef null, i32 noundef 0, ptr noundef nonnull @.str.2, ptr noundef nonnull @.str.3, ptr noundef nonnull @.str.4, i32 noundef 47) #8
  tail call void @abort() #9
  unreachable

._crit_edge54:                                    ; preds = %._crit_edge50.us, %.lr.ph53, %6
  %indvars.iv.next73 = add nuw nsw i64 %indvars.iv72, 1
  %exitcond76.not = icmp eq i64 %indvars.iv.next73, %wide.trip.count75
  br i1 %exitcond76.not, label %._crit_edge, label %6, !llvm.loop !103

._crit_edge:                                      ; preds = %._crit_edge54, %2
  ret void
}